; Function Attrs: mustprogress nounwind uwtable
define void @_ZN2cv7GRunArgC2Ev(ptr noundef nonnull align 8 dereferenceable(160) initializes((0, 8)) %0) unnamed_addr #3 align 2 {
  store i64 0, ptr %0, align 8, !tbaa !3
  %2 = getelementptr inbounds nuw i8, ptr %0, i64 8
  tail call void @_ZN2cv4UMatC1ENS_14UMatUsageFlagsE(ptr noundef nonnull align 8 dereferenceable(80) %2, i32 noundef 0) #21
  %3 = getelementptr inbounds nuw i8, ptr %0, i64 104
  %4 = getelementptr inbounds nuw i8, ptr %0, i64 152
  store ptr %4, ptr %3, align 8, !tbaa !8
  %5 = getelementptr inbounds nuw i8, ptr %0, i64 112
  store i64 1, ptr %5, align 8, !tbaa !17
  %6 = getelementptr inbounds nuw i8, ptr %0, i64 120
  %7 = getelementptr inbounds nuw i8, ptr %0, i64 136
  tail call void @llvm.memset.p0.i64(ptr noundef nonnull align 8 dereferenceable(16) %6, i8 0, i64 16, i1 false)
  store float 1.000000e+00, ptr %7, align 8, !tbaa !18
  %8 = getelementptr inbounds nuw i8, ptr %0, i64 144
  tail call void @llvm.memset.p0.i64(ptr noundef nonnull align 8 dereferenceable(16) %8, i8 0, i64 16, i1 false)
  ret void
}